; Function Attrs: nounwind sspstrong uwtable
define internal i64 @argf_readline(i32 noundef %0, ptr noundef %1, i64 noundef %2) #0 {
  %4 = tail call fastcc i32 @argf_next_argv(i64 noundef %2)
  %.not = icmp eq i32 %4, 0
  br i1 %.not, label %5, label %6

5:                                                ; preds = %3
  tail call void @rb_eof_error() #31
  unreachable

6:                                                ; preds = %3
  %7 = inttoptr i64 %2 to ptr
  %8 = getelementptr inbounds nuw i8, ptr %7, i64 32
  %9 = load ptr, ptr %8, align 8, !tbaa !59
  %10 = getelementptr inbounds nuw i8, ptr %9, i64 8
  %11 = load i64, ptr %10, align 8, !tbaa !61
  %12 = load i64, ptr @rb_stdin, align 8, !tbaa !23
  %13 = icmp eq i64 %11, %12
  br i1 %13, label %14, label %28

14:                                               ; preds = %6
  %15 = icmp eq i64 %11, 0
  %16 = and i64 %11, 7
  %17 = icmp ne i64 %16, 0
  %18 = or i1 %15, %17
  br i1 %18, label %rbimpl_RB_TYPE_P_fastpath.exit.thread, label %rbimpl_RB_TYPE_P_fastpath.exit

rbimpl_RB_TYPE_P_fastpath.exit:                   ; preds = %14
  %19 = inttoptr i64 %11 to ptr
  %20 = load i64, ptr %19, align 8, !tbaa !25
  %21 = and i64 %20, 31
  %22 = icmp eq i64 %21, 11
  br i1 %22, label %28, label %rbimpl_RB_TYPE_P_fastpath.exit.thread

rbimpl_RB_TYPE_P_fastpath.exit.thread:            ; preds = %14, %rbimpl_RB_TYPE_P_fastpath.exit
  %23 = tail call i64 @rb_frame_this_func() #28
  %24 = tail call i32 @rb_keyword_given_p() #28
  %25 = icmp ne i32 %24, 0
  %26 = zext i1 %25 to i32
  %27 = tail call i64 @rb_funcallv_public_kw(i64 noundef %11, i64 noundef %23, i32 noundef %0, ptr noundef %1, i32 noundef %26) #28
  br label %32

28:                                               ; preds = %rbimpl_RB_TYPE_P_fastpath.exit, %6
  %29 = tail call i64 @argf_gets(i32 noundef %0, ptr noundef %1, i64 noundef %2)
  %30 = icmp eq i64 %29, 4
  br i1 %30, label %31, label %32

31:                                               ; preds = %28
  tail call void @rb_eof_error() #31
  unreachable

32:                                               ; preds = %28, %rbimpl_RB_TYPE_P_fastpath.exit.thread
  %.0 = phi i64 [ %27, %rbimpl_RB_TYPE_P_fastpath.exit.thread ], [ %29, %28 ]
  ret i64 %.0
}